; Function Attrs: nounwind uwtable
define dso_local i32 @SPI_execute(ptr noundef %0, i1 noundef zeroext %1, i64 noundef %2) local_unnamed_addr #0 {
  %4 = alloca %struct.SPICallbackArg, align 8
  %5 = alloca %struct.ErrorContextCallback, align 8
  %6 = alloca %struct._SPI_plan, align 8
  %7 = alloca %struct.SPIExecuteOptions, align 8
  %8 = zext i1 %1 to i8
  call void @llvm.lifetime.start.p0(i64 64, ptr nonnull %6) #15
  call void @llvm.lifetime.start.p0(i64 40, ptr nonnull %7) #15
  %9 = icmp eq ptr %0, null
  %10 = icmp slt i64 %2, 0
  %or.cond = or i1 %9, %10
  br i1 %or.cond, label %_SPI_begin_call.exit, label %11

11:                                               ; preds = %3
  %12 = load ptr, ptr @_SPI_current, align 8
  %.not = icmp eq ptr %12, null
  br i1 %.not, label %_SPI_begin_call.exit, label %_SPI_begin_call.exit.thread

_SPI_begin_call.exit.thread:                      ; preds = %11
  %13 = tail call i32 @GetCurrentSubTransactionId() #15
  %14 = load ptr, ptr @_SPI_current, align 8
  %15 = getelementptr inbounds nuw i8, ptr %14, i64 16
  store i32 %13, ptr %15, align 8
  %16 = getelementptr inbounds nuw i8, ptr %14, i64 40
  %17 = load ptr, ptr %16, align 8
  store ptr %17, ptr @CurrentMemoryContext, align 8
  call void @llvm.memset.p0.i64(ptr noundef nonnull align 8 dereferenceable(64) %6, i8 0, i64 64, i1 false)
  store i32 569278163, ptr %6, align 8
  %18 = getelementptr inbounds nuw i8, ptr %6, i64 28
  store i32 2048, ptr %18, align 4
  call void @llvm.lifetime.start.p0(i64 16, ptr nonnull %4) #15
  call void @llvm.lifetime.start.p0(i64 24, ptr nonnull %5) #15
  store ptr %0, ptr %4, align 8
  %19 = getelementptr inbounds nuw i8, ptr %4, i64 8
  store i32 0, ptr %19, align 8
  %20 = getelementptr inbounds nuw i8, ptr %5, i64 8
  store ptr @_SPI_error_callback, ptr %20, align 8
  %21 = getelementptr inbounds nuw i8, ptr %5, i64 16
  store ptr %4, ptr %21, align 8
  %22 = load ptr, ptr @error_context_stack, align 8
  store ptr %22, ptr %5, align 8
  store ptr %5, ptr @error_context_stack, align 8
  %23 = call ptr @raw_parser(ptr noundef nonnull %0, i32 noundef 0) #15
  %24 = getelementptr inbounds nuw i8, ptr %23, i64 4
  %.not.i = icmp eq ptr %23, null
  br i1 %.not.i, label %_SPI_prepare_oneshot_plan.exit, label %.lr.ph.i

.lr.ph.i:                                         ; preds = %_SPI_begin_call.exit.thread
  %25 = getelementptr inbounds nuw i8, ptr %23, i64 16
  %26 = load i32, ptr %24, align 4
  %27 = icmp sgt i32 %26, 0
  br i1 %27, label %.lr.ph30.i, label %_SPI_prepare_oneshot_plan.exit

.lr.ph30.i:                                       ; preds = %.lr.ph.i, %.lr.ph30.i
  %indvars.iv.i = phi i64 [ %indvars.iv.next.i, %.lr.ph30.i ], [ 0, %.lr.ph.i ]
  %.02428.i = phi ptr [ %35, %.lr.ph30.i ], [ null, %.lr.ph.i ]
  %28 = load ptr, ptr %25, align 8
  %29 = getelementptr inbounds nuw %union.ListCell, ptr %28, i64 %indvars.iv.i
  %30 = load ptr, ptr %29, align 8
  %31 = getelementptr inbounds nuw i8, ptr %30, i64 8
  %32 = load ptr, ptr %31, align 8
  %33 = call i32 @CreateCommandTag(ptr noundef %32) #15
  %34 = call ptr @CreateOneShotCachedPlan(ptr noundef %30, ptr noundef nonnull %0, i32 noundef %33) #15
  %35 = call ptr @lappend(ptr noundef %.02428.i, ptr noundef %34) #15
  %indvars.iv.next.i = add nuw nsw i64 %indvars.iv.i, 1
  %36 = load i32, ptr %24, align 4
  %37 = sext i32 %36 to i64
  %38 = icmp slt i64 %indvars.iv.next.i, %37
  br i1 %38, label %.lr.ph30.i, label %_SPI_prepare_oneshot_plan.exit

_SPI_prepare_oneshot_plan.exit:                   ; preds = %.lr.ph30.i, %_SPI_begin_call.exit.thread, %.lr.ph.i
  %.0.lcssa.i = phi ptr [ null, %_SPI_begin_call.exit.thread ], [ null, %.lr.ph.i ], [ %35, %.lr.ph30.i ]
  %39 = getelementptr inbounds nuw i8, ptr %6, i64 8
  store ptr %.0.lcssa.i, ptr %39, align 8
  %40 = getelementptr inbounds nuw i8, ptr %6, i64 5
  store i8 1, ptr %40, align 1
  %41 = load ptr, ptr %5, align 8
  store ptr %41, ptr @error_context_stack, align 8
  call void @llvm.lifetime.end.p0(i64 24, ptr nonnull %5) #15
  call void @llvm.lifetime.end.p0(i64 16, ptr nonnull %4) #15
  call void @llvm.memset.p0.i64(ptr noundef nonnull align 8 dereferenceable(40) %7, i8 0, i64 40, i1 false)
  %42 = getelementptr inbounds nuw i8, ptr %7, i64 8
  store i8 %8, ptr %42, align 8
  %43 = getelementptr inbounds nuw i8, ptr %7, i64 16
  store i64 %2, ptr %43, align 8
  %44 = call fastcc i32 @_SPI_execute_plan(ptr noundef %6, ptr noundef %7, ptr noundef null, ptr noundef null, i1 noundef zeroext true)
  %45 = load ptr, ptr @_SPI_current, align 8
  %46 = getelementptr inbounds nuw i8, ptr %45, i64 32
  %47 = load ptr, ptr %46, align 8
  store ptr %47, ptr @CurrentMemoryContext, align 8
  %48 = getelementptr inbounds nuw i8, ptr %45, i64 16
  store i32 0, ptr %48, align 8
  %49 = getelementptr inbounds nuw i8, ptr %45, i64 40
  %50 = load ptr, ptr %49, align 8
  call void @MemoryContextReset(ptr noundef %50) #15
  br label %_SPI_begin_call.exit

_SPI_begin_call.exit:                             ; preds = %11, %3, %_SPI_prepare_oneshot_plan.exit
  %.0 = phi i32 [ %44, %_SPI_prepare_oneshot_plan.exit ], [ -6, %3 ], [ -4, %11 ]
  call void @llvm.lifetime.end.p0(i64 40, ptr nonnull %7) #15
  call void @llvm.lifetime.end.p0(i64 64, ptr nonnull %6) #15
  ret i32 %.0
}